; ModuleID = '64/1957.c'
source_filename = "64/1957.c"
target datalayout = "e-m:e-p270:32:32-p271:32:32-p272:64:64-i64:64-f80:128-n8:16:32:64-S128"
target triple = "x86_64-pc-linux-gnu"

@.str = private unnamed_addr constant [3 x i8] c"%d\00", align 1
@.str.1 = private unnamed_addr constant [9 x i8] c"%d %d %d\00", align 1
@.str.2 = private unnamed_addr constant [28 x i8] c"(%d,%d,%d)-(%d,%d,%d)=%.2f\0A\00", align 1

; Function Attrs: noinline nounwind uwtable
define dso_local void @main() #0 {
  %1 = alloca i32, align 4
  %2 = alloca i32, align 4
  %3 = alloca i32, align 4
  %4 = alloca i32, align 4
  %5 = alloca [10 x [3 x i32]], align 16
  %6 = alloca [10 x [10 x double]], align 16
  %7 = alloca double, align 8
  %8 = alloca i32, align 4
  %9 = alloca i32, align 4
  %10 = call i32 (i8*, ...) @__isoc99_scanf(i8* getelementptr inbounds ([3 x i8], [3 x i8]* @.str, i64 0, i64 0), i32* %4)
  store i32 0, i32* %1, align 4
  br label %11

11:                                               ; preds = %29, %0
  %12 = load i32, i32* %1, align 4
  %13 = load i32, i32* %4, align 4
  %14 = icmp slt i32 %12, %13
  br i1 %14, label %15, label %32

15:                                               ; preds = %11
  %16 = load i32, i32* %1, align 4
  %17 = sext i32 %16 to i64
  %18 = getelementptr inbounds [10 x [3 x i32]], [10 x [3 x i32]]* %5, i64 0, i64 %17
  %19 = getelementptr inbounds [3 x i32], [3 x i32]* %18, i64 0, i64 0
  %20 = load i32, i32* %1, align 4
  %21 = sext i32 %20 to i64
  %22 = getelementptr inbounds [10 x [3 x i32]], [10 x [3 x i32]]* %5, i64 0, i64 %21
  %23 = getelementptr inbounds [3 x i32], [3 x i32]* %22, i64 0, i64 1
  %24 = load i32, i32* %1, align 4
  %25 = sext i32 %24 to i64
  %26 = getelementptr inbounds [10 x [3 x i32]], [10 x [3 x i32]]* %5, i64 0, i64 %25
  %27 = getelementptr inbounds [3 x i32], [3 x i32]* %26, i64 0, i64 2
  %28 = call i32 (i8*, ...) @__isoc99_scanf(i8* getelementptr inbounds ([9 x i8], [9 x i8]* @.str.1, i64 0, i64 0), i32* %19, i32* %23, i32* %27)
  br label %29

29:                                               ; preds = %15
  %30 = load i32, i32* %1, align 4
  %31 = add nsw i32 %30, 1
  store i32 %31, i32* %1, align 4
  br label %11

32:                                               ; preds = %11
  store i32 0, i32* %1, align 4
  br label %33

33:                                               ; preds = %128, %32
  %34 = load i32, i32* %1, align 4
  %35 = load i32, i32* %4, align 4
  %36 = sub nsw i32 %35, 1
  %37 = icmp slt i32 %34, %36
  br i1 %37, label %38, label %131

38:                                               ; preds = %33
  %39 = load i32, i32* %1, align 4
  %40 = add nsw i32 %39, 1
  store i32 %40, i32* %2, align 4
  br label %41

41:                                               ; preds = %124, %38
  %42 = load i32, i32* %2, align 4
  %43 = load i32, i32* %4, align 4
  %44 = icmp slt i32 %42, %43
  br i1 %44, label %45, label %127

45:                                               ; preds = %41
  %46 = load i32, i32* %1, align 4
  %47 = sext i32 %46 to i64
  %48 = getelementptr inbounds [10 x [3 x i32]], [10 x [3 x i32]]* %5, i64 0, i64 %47
  %49 = getelementptr inbounds [3 x i32], [3 x i32]* %48, i64 0, i64 0
  %50 = load i32, i32* %49, align 4
  %51 = load i32, i32* %2, align 4
  %52 = sext i32 %51 to i64
  %53 = getelementptr inbounds [10 x [3 x i32]], [10 x [3 x i32]]* %5, i64 0, i64 %52
  %54 = getelementptr inbounds [3 x i32], [3 x i32]* %53, i64 0, i64 0
  %55 = load i32, i32* %54, align 4
  %56 = sub nsw i32 %50, %55
  %57 = load i32, i32* %1, align 4
  %58 = sext i32 %57 to i64
  %59 = getelementptr inbounds [10 x [3 x i32]], [10 x [3 x i32]]* %5, i64 0, i64 %58
  %60 = getelementptr inbounds [3 x i32], [3 x i32]* %59, i64 0, i64 0
  %61 = load i32, i32* %60, align 4
  %62 = load i32, i32* %2, align 4
  %63 = sext i32 %62 to i64
  %64 = getelementptr inbounds [10 x [3 x i32]], [10 x [3 x i32]]* %5, i64 0, i64 %63
  %65 = getelementptr inbounds [3 x i32], [3 x i32]* %64, i64 0, i64 0
  %66 = load i32, i32* %65, align 4
  %67 = sub nsw i32 %61, %66
  %68 = mul nsw i32 %56, %67
  %69 = load i32, i32* %1, align 4
  %70 = sext i32 %69 to i64
  %71 = getelementptr inbounds [10 x [3 x i32]], [10 x [3 x i32]]* %5, i64 0, i64 %70
  %72 = getelementptr inbounds [3 x i32], [3 x i32]* %71, i64 0, i64 1
  %73 = load i32, i32* %72, align 4
  %74 = load i32, i32* %2, align 4
  %75 = sext i32 %74 to i64
  %76 = getelementptr inbounds [10 x [3 x i32]], [10 x [3 x i32]]* %5, i64 0, i64 %75
  %77 = getelementptr inbounds [3 x i32], [3 x i32]* %76, i64 0, i64 1
  %78 = load i32, i32* %77, align 4
  %79 = sub nsw i32 %73, %78
  %80 = load i32, i32* %1, align 4
  %81 = sext i32 %80 to i64
  %82 = getelementptr inbounds [10 x [3 x i32]], [10 x [3 x i32]]* %5, i64 0, i64 %81
  %83 = getelementptr inbounds [3 x i32], [3 x i32]* %82, i64 0, i64 1
  %84 = load i32, i32* %83, align 4
  %85 = load i32, i32* %2, align 4
  %86 = sext i32 %85 to i64
  %87 = getelementptr inbounds [10 x [3 x i32]], [10 x [3 x i32]]* %5, i64 0, i64 %86
  %88 = getelementptr inbounds [3 x i32], [3 x i32]* %87, i64 0, i64 1
  %89 = load i32, i32* %88, align 4
  %90 = sub nsw i32 %84, %89
  %91 = mul nsw i32 %79, %90
  %92 = add nsw i32 %68, %91
  %93 = load i32, i32* %1, align 4
  %94 = sext i32 %93 to i64
  %95 = getelementptr inbounds [10 x [3 x i32]], [10 x [3 x i32]]* %5, i64 0, i64 %94
  %96 = getelementptr inbounds [3 x i32], [3 x i32]* %95, i64 0, i64 2
  %97 = load i32, i32* %96, align 4
  %98 = load i32, i32* %2, align 4
  %99 = sext i32 %98 to i64
  %100 = getelementptr inbounds [10 x [3 x i32]], [10 x [3 x i32]]* %5, i64 0, i64 %99
  %101 = getelementptr inbounds [3 x i32], [3 x i32]* %100, i64 0, i64 2
  %102 = load i32, i32* %101, align 4
  %103 = sub nsw i32 %97, %102
  %104 = load i32, i32* %1, align 4
  %105 = sext i32 %104 to i64
  %106 = getelementptr inbounds [10 x [3 x i32]], [10 x [3 x i32]]* %5, i64 0, i64 %105
  %107 = getelementptr inbounds [3 x i32], [3 x i32]* %106, i64 0, i64 2
  %108 = load i32, i32* %107, align 4
  %109 = load i32, i32* %2, align 4
  %110 = sext i32 %109 to i64
  %111 = getelementptr inbounds [10 x [3 x i32]], [10 x [3 x i32]]* %5, i64 0, i64 %110
  %112 = getelementptr inbounds [3 x i32], [3 x i32]* %111, i64 0, i64 2
  %113 = load i32, i32* %112, align 4
  %114 = sub nsw i32 %108, %113
  %115 = mul nsw i32 %103, %114
  %116 = add nsw i32 %92, %115
  %117 = sitofp i32 %116 to double
  %118 = load i32, i32* %1, align 4
  %119 = sext i32 %118 to i64
  %120 = getelementptr inbounds [10 x [10 x double]], [10 x [10 x double]]* %6, i64 0, i64 %119
  %121 = load i32, i32* %2, align 4
  %122 = sext i32 %121 to i64
  %123 = getelementptr inbounds [10 x double], [10 x double]* %120, i64 0, i64 %122
  store double %117, double* %123, align 8
  br label %124

124:                                              ; preds = %45
  %125 = load i32, i32* %2, align 4
  %126 = add nsw i32 %125, 1
  store i32 %126, i32* %2, align 4
  br label %41

127:                                              ; preds = %41
  br label %128

128:                                              ; preds = %127
  %129 = load i32, i32* %1, align 4
  %130 = add nsw i32 %129, 1
  store i32 %130, i32* %1, align 4
  br label %33

131:                                              ; preds = %33
  %132 = load i32, i32* %4, align 4
  %133 = load i32, i32* %4, align 4
  %134 = sub nsw i32 %133, 1
  %135 = mul nsw i32 %132, %134
  %136 = sdiv i32 %135, 2
  store i32 %136, i32* %3, align 4
  br label %137

137:                                              ; preds = %222, %131
  %138 = load i32, i32* %3, align 4
  %139 = icmp sgt i32 %138, 0
  br i1 %139, label %140, label %225

140:                                              ; preds = %137
  store double 0.000000e+00, double* %7, align 8
  store i32 0, i32* %1, align 4
  br label %141

141:                                              ; preds = %178, %140
  %142 = load i32, i32* %1, align 4
  %143 = load i32, i32* %4, align 4
  %144 = sub nsw i32 %143, 1
  %145 = icmp slt i32 %142, %144
  br i1 %145, label %146, label %181

146:                                              ; preds = %141
  %147 = load i32, i32* %1, align 4
  %148 = add nsw i32 %147, 1
  store i32 %148, i32* %2, align 4
  br label %149

149:                                              ; preds = %174, %146
  %150 = load i32, i32* %2, align 4
  %151 = load i32, i32* %4, align 4
  %152 = icmp slt i32 %150, %151
  br i1 %152, label %153, label %177

153:                                              ; preds = %149
  %154 = load i32, i32* %1, align 4
  %155 = sext i32 %154 to i64
  %156 = getelementptr inbounds [10 x [10 x double]], [10 x [10 x double]]* %6, i64 0, i64 %155
  %157 = load i32, i32* %2, align 4
  %158 = sext i32 %157 to i64
  %159 = getelementptr inbounds [10 x double], [10 x double]* %156, i64 0, i64 %158
  %160 = load double, double* %159, align 8
  %161 = load double, double* %7, align 8
  %162 = fcmp ogt double %160, %161
  br i1 %162, label %163, label %173

163:                                              ; preds = %153
  %164 = load i32, i32* %1, align 4
  %165 = sext i32 %164 to i64
  %166 = getelementptr inbounds [10 x [10 x double]], [10 x [10 x double]]* %6, i64 0, i64 %165
  %167 = load i32, i32* %2, align 4
  %168 = sext i32 %167 to i64
  %169 = getelementptr inbounds [10 x double], [10 x double]* %166, i64 0, i64 %168
  %170 = load double, double* %169, align 8
  store double %170, double* %7, align 8
  %171 = load i32, i32* %1, align 4
  store i32 %171, i32* %8, align 4
  %172 = load i32, i32* %2, align 4
  store i32 %172, i32* %9, align 4
  br label %173

173:                                              ; preds = %163, %153
  br label %174

174:                                              ; preds = %173
  %175 = load i32, i32* %2, align 4
  %176 = add nsw i32 %175, 1
  store i32 %176, i32* %2, align 4
  br label %149

177:                                              ; preds = %149
  br label %178

178:                                              ; preds = %177
  %179 = load i32, i32* %1, align 4
  %180 = add nsw i32 %179, 1
  store i32 %180, i32* %1, align 4
  br label %141

181:                                              ; preds = %141
  %182 = load double, double* %7, align 8
  %183 = call double @sqrt(double %182) #3
  store double %183, double* %7, align 8
  %184 = load i32, i32* %8, align 4
  %185 = sext i32 %184 to i64
  %186 = getelementptr inbounds [10 x [3 x i32]], [10 x [3 x i32]]* %5, i64 0, i64 %185
  %187 = getelementptr inbounds [3 x i32], [3 x i32]* %186, i64 0, i64 0
  %188 = load i32, i32* %187, align 4
  %189 = load i32, i32* %8, align 4
  %190 = sext i32 %189 to i64
  %191 = getelementptr inbounds [10 x [3 x i32]], [10 x [3 x i32]]* %5, i64 0, i64 %190
  %192 = getelementptr inbounds [3 x i32], [3 x i32]* %191, i64 0, i64 1
  %193 = load i32, i32* %192, align 4
  %194 = load i32, i32* %8, align 4
  %195 = sext i32 %194 to i64
  %196 = getelementptr inbounds [10 x [3 x i32]], [10 x [3 x i32]]* %5, i64 0, i64 %195
  %197 = getelementptr inbounds [3 x i32], [3 x i32]* %196, i64 0, i64 2
  %198 = load i32, i32* %197, align 4
  %199 = load i32, i32* %9, align 4
  %200 = sext i32 %199 to i64
  %201 = getelementptr inbounds [10 x [3 x i32]], [10 x [3 x i32]]* %5, i64 0, i64 %200
  %202 = getelementptr inbounds [3 x i32], [3 x i32]* %201, i64 0, i64 0
  %203 = load i32, i32* %202, align 4
  %204 = load i32, i32* %9, align 4
  %205 = sext i32 %204 to i64
  %206 = getelementptr inbounds [10 x [3 x i32]], [10 x [3 x i32]]* %5, i64 0, i64 %205
  %207 = getelementptr inbounds [3 x i32], [3 x i32]* %206, i64 0, i64 1
  %208 = load i32, i32* %207, align 4
  %209 = load i32, i32* %9, align 4
  %210 = sext i32 %209 to i64
  %211 = getelementptr inbounds [10 x [3 x i32]], [10 x [3 x i32]]* %5, i64 0, i64 %210
  %212 = getelementptr inbounds [3 x i32], [3 x i32]* %211, i64 0, i64 2
  %213 = load i32, i32* %212, align 4
  %214 = load double, double* %7, align 8
  %215 = call i32 (i8*, ...) @printf(i8* getelementptr inbounds ([28 x i8], [28 x i8]* @.str.2, i64 0, i64 0), i32 %188, i32 %193, i32 %198, i32 %203, i32 %208, i32 %213, double %214)
  %216 = load i32, i32* %8, align 4
  %217 = sext i32 %216 to i64
  %218 = getelementptr inbounds [10 x [10 x double]], [10 x [10 x double]]* %6, i64 0, i64 %217
  %219 = load i32, i32* %9, align 4
  %220 = sext i32 %219 to i64
  %221 = getelementptr inbounds [10 x double], [10 x double]* %218, i64 0, i64 %220
  store double 0.000000e+00, double* %221, align 8
  br label %222

222:                                              ; preds = %181
  %223 = load i32, i32* %3, align 4
  %224 = add nsw i32 %223, -1
  store i32 %224, i32* %3, align 4
  br label %137

225:                                              ; preds = %137
  ret void
}

declare dso_local i32 @__isoc99_scanf(i8*, ...) #1

; Function Attrs: nounwind
declare dso_local double @sqrt(double) #2

declare dso_local i32 @printf(i8*, ...) #1


!llvm.module.flags = !{!0}
!llvm.ident = !{!1}

!0 = !{i32 1, !"wchar_size", i32 4}
!1 = !{!"clang version 10.0.0-4ubuntu1 "}
